; Function Attrs: mustprogress nofree norecurse nosync nounwind willreturn memory(read, inaccessiblemem: none) uwtable
define hidden noundef zeroext i1 @_ZltRK7zstringS1_(ptr noundef nonnull readonly align 8 captures(none) dereferenceable(80) %0, ptr noundef nonnull readonly align 8 captures(none) dereferenceable(80) %1) local_unnamed_addr #8 {
  %3 = getelementptr inbounds nuw i8, ptr %0, i64 8
  %4 = load i32, ptr %3, align 8, !tbaa !16
  %5 = getelementptr inbounds nuw i8, ptr %1, i64 8
  %6 = load i32, ptr %5, align 8, !tbaa !16
  %spec.select = tail call i32 @llvm.umin.i32(i32 %6, i32 %4)
  %.not2731.not = icmp eq i32 %spec.select, 0
  br i1 %.not2731.not, label %._crit_edge, label %.lr.ph

.lr.ph:                                           ; preds = %2
  %7 = load ptr, ptr %0, align 8, !tbaa !13
  %8 = load ptr, ptr %1, align 8, !tbaa !13
  %wide.trip.count = zext i32 %spec.select to i64
  br label %10

9:                                                ; preds = %10
  %indvars.iv.next = add nuw nsw i64 %indvars.iv, 1
  %exitcond.not = icmp eq i64 %indvars.iv.next, %wide.trip.count
  br i1 %exitcond.not, label %._crit_edge, label %10, !llvm.loop !64

10:                                               ; preds = %.lr.ph, %9
  %indvars.iv = phi i64 [ 0, %.lr.ph ], [ %indvars.iv.next, %9 ]
  %11 = getelementptr inbounds nuw i32, ptr %7, i64 %indvars.iv
  %12 = load i32, ptr %11, align 4, !tbaa !9
  %13 = getelementptr inbounds nuw i32, ptr %8, i64 %indvars.iv
  %14 = load i32, ptr %13, align 4, !tbaa !9
  %.not = icmp eq i32 %12, %14
  br i1 %.not, label %9, label %.thread.loopexit

._crit_edge:                                      ; preds = %9, %2
  %15 = icmp ult i32 %4, %6
  br label %.thread

.thread.loopexit:                                 ; preds = %10
  %16 = icmp ult i32 %12, %14
  br label %.thread

.thread:                                          ; preds = %.thread.loopexit, %._crit_edge
  %.3 = phi i1 [ %15, %._crit_edge ], [ %16, %.thread.loopexit ]
  ret i1 %.3
}